target datalayout = "e-m:e-p270:32:32-p271:32:32-p272:64:64-i64:64-i128:128-f80:128-n8:16:32:64-S128"
target triple = "x86_64-pc-linux-gnu"

; Function Attrs: nounwind uwtable
define internal i32 @kwsysProcessSetNonBlocking(i32 noundef %0) #0 {
  %2 = alloca i32, align 4
  %3 = alloca i32, align 4
  store i32 %0, ptr %2, align 4, !tbaa !20
  call void @llvm.lifetime.start.p0(i64 4, ptr %3) #11
  %4 = load i32, ptr %2, align 4, !tbaa !20
  %5 = call i32 (i32, i32, ...) @fcntl(i32 noundef %4, i32 noundef 3)
  store i32 %5, ptr %3, align 4, !tbaa !20
  %6 = load i32, ptr %3, align 4, !tbaa !20
  %7 = icmp sge i32 %6, 0
  br i1 %7, label %8, label %13

8:                                                ; preds = %1
  %9 = load i32, ptr %2, align 4, !tbaa !20
  %10 = load i32, ptr %3, align 4, !tbaa !20
  %11 = or i32 %10, 2048
  %12 = call i32 (i32, i32, ...) @fcntl(i32 noundef %9, i32 noundef 4, i32 noundef %11)
  store i32 %12, ptr %3, align 4, !tbaa !20
  br label %13

13:                                               ; preds = %8, %1
  %14 = load i32, ptr %3, align 4, !tbaa !20
  %15 = icmp sge i32 %14, 0
  %16 = zext i1 %15 to i32
  call void @llvm.lifetime.end.p0(i64 4, ptr %3) #11
  ret i32 %16
}