; Function Attrs: nounwind uwtable
define internal fastcc range(i32 0, 2) i32 @kwsysProcessSetNonBlocking(i32 noundef %0) unnamed_addr #4 {
  %2 = tail call i32 (i32, i32, ...) @fcntl(i32 noundef %0, i32 noundef 3) #25
  %3 = icmp sgt i32 %2, -1
  br i1 %3, label %4, label %9

4:                                                ; preds = %1
  %5 = or i32 %2, 2048
  %6 = tail call i32 (i32, i32, ...) @fcntl(i32 noundef %0, i32 noundef 4, i32 noundef %5) #25
  %7 = icmp sgt i32 %6, -1
  %8 = zext i1 %7 to i32
  br label %9

9:                                                ; preds = %4, %1
  %.0 = phi i32 [ %8, %4 ], [ 0, %1 ]
  ret i32 %.0
}